target datalayout = "e-m:e-p270:32:32-p271:32:32-p272:64:64-i64:64-i128:128-f80:128-n8:16:32:64-S128"
target triple = "x86_64-pc-linux-gnu"

%struct.expert_field = type { i32, i32 }
%struct.cip_connection_triad = type { i16, i16, i32 }
%struct._proto_node = type { ptr, ptr, ptr, ptr, ptr, ptr, ptr }
%struct.field_info = type { ptr, i32, i32, i32, i32, i32, i32, ptr, ptr, ptr, i32, i32 }

@hf_cipsafety_crc_s1 = internal global i32 0, align 4
@hf_cipsafety_crc_s1_status = internal global i32 0, align 4
@hf_cipsafety_timestamp = internal global i32 0, align 4
@hf_cip_safety_message_encoding = internal global i32 0, align 4
@ei_cipsafety_crc_s1 = internal global %struct.expert_field zeroinitializer, align 4

; Function Attrs: alwaysinline nounwind
define internal ptr @memcpy.inline(ptr noalias %0, ptr noalias %1, i64 %2) #8 {
  %4 = alloca ptr, align 8
  %5 = alloca ptr, align 8
  %6 = alloca i64, align 8
  store ptr %0, ptr %4, align 8
  store ptr %1, ptr %5, align 8
  store i64 %2, ptr %6, align 8
  %7 = load ptr, ptr %4, align 8
  %8 = load ptr, ptr %5, align 8
  %9 = load i64, ptr %6, align 8
  %10 = load ptr, ptr %4, align 8
  %11 = call i64 @llvm.objectsize.i64.p0(ptr %10, i1 false, i1 true, i1 true)
  %12 = call ptr @__memcpy_chk(ptr noundef %7, ptr noundef %8, i64 noundef %9, i64 noundef %11) #11
  ret ptr %12
}

; Function Attrs: null_pointer_is_valid sspstrong uwtable
define internal zeroext i8 @compute_crc_s1_timestamp(i8 noundef zeroext %0, i8 noundef zeroext %1, i16 noundef zeroext %2) #0 {
  %4 = alloca i8, align 1
  %5 = alloca i8, align 1
  %6 = alloca i16, align 2
  %7 = alloca i8, align 1
  %8 = alloca i8, align 1
  store i8 %0, ptr %4, align 1
  store i8 %1, ptr %5, align 1
  store i16 %2, ptr %6, align 2
  call void @llvm.lifetime.start.p0(i64 1, ptr %7) #11
  %9 = load i8, ptr %4, align 1
  %10 = call zeroext i8 @crc8_0x37(ptr noundef %5, i32 noundef 1, i8 noundef zeroext %9)
  store i8 %10, ptr %7, align 1
  call void @llvm.lifetime.start.p0(i64 1, ptr %8) #11
  %11 = load i8, ptr %7, align 1
  %12 = call zeroext i8 @crc8_0x37(ptr noundef %6, i32 noundef 2, i8 noundef zeroext %11)
  store i8 %12, ptr %8, align 1
  %13 = load i8, ptr %8, align 1
  call void @llvm.lifetime.end.p0(i64 1, ptr %8) #11
  call void @llvm.lifetime.end.p0(i64 1, ptr %7) #11
  ret i8 %13
}

; Function Attrs: null_pointer_is_valid sspstrong uwtable
define internal zeroext i8 @compute_crc_s1_pid(ptr noundef %0) #0 {
  %2 = alloca ptr, align 8
  %3 = alloca [8 x i8], align 1
  store ptr %0, ptr %2, align 8
  call void @llvm.lifetime.start.p0(i64 8, ptr %3) #11
  %4 = getelementptr inbounds [8 x i8], ptr %3, i64 0, i64 0
  %5 = load ptr, ptr %2, align 8
  %6 = getelementptr inbounds nuw %struct.cip_connection_triad, ptr %5, i32 0, i32 1
  %7 = call ptr @memcpy.inline(ptr noundef %4, ptr noundef %6, i64 noundef 2) #11
  %8 = getelementptr [8 x i8], ptr %3, i64 0, i64 2
  %9 = load ptr, ptr %2, align 8
  %10 = getelementptr inbounds nuw %struct.cip_connection_triad, ptr %9, i32 0, i32 2
  %11 = call ptr @memcpy.inline(ptr noundef %8, ptr noundef %10, i64 noundef 4) #11
  %12 = getelementptr [8 x i8], ptr %3, i64 0, i64 6
  %13 = load ptr, ptr %2, align 8
  %14 = getelementptr inbounds nuw %struct.cip_connection_triad, ptr %13, i32 0, i32 0
  %15 = call ptr @memcpy.inline(ptr noundef %12, ptr noundef %14, i64 noundef 2) #11
  %16 = getelementptr inbounds [8 x i8], ptr %3, i64 0, i64 0
  %17 = call zeroext i8 @crc8_0x37(ptr noundef %16, i32 noundef 8, i8 noundef zeroext 0)
  call void @llvm.lifetime.end.p0(i64 8, ptr %3) #11
  ret i8 %17
}

; Function Attrs: inlinehint nounwind null_pointer_is_valid sspstrong uwtable
define internal void @proto_item_set_generated(ptr noundef %0) #5 {
  %2 = alloca ptr, align 8
  store ptr %0, ptr %2, align 8
  %3 = load ptr, ptr %2, align 8
  %4 = icmp ne ptr %3, null
  br i1 %4, label %5, label %24

5:                                                ; preds = %1
  br label %6

6:                                                ; preds = %5
  %7 = load ptr, ptr %2, align 8
  %8 = getelementptr inbounds nuw %struct._proto_node, ptr %7, i32 0, i32 5
  %9 = load ptr, ptr %8, align 8
  %10 = icmp ne ptr %9, null
  br i1 %10, label %11, label %22

11:                                               ; preds = %6
  %12 = load ptr, ptr %2, align 8
  %13 = getelementptr inbounds nuw %struct._proto_node, ptr %12, i32 0, i32 5
  %14 = load ptr, ptr %13, align 8
  %15 = getelementptr inbounds nuw %struct.field_info, ptr %14, i32 0, i32 6
  %16 = load i32, ptr %15, align 4
  %17 = or i32 %16, 2
  %18 = load ptr, ptr %2, align 8
  %19 = getelementptr inbounds nuw %struct._proto_node, ptr %18, i32 0, i32 5
  %20 = load ptr, ptr %19, align 8
  %21 = getelementptr inbounds nuw %struct.field_info, ptr %20, i32 0, i32 6
  store i32 %17, ptr %21, align 4
  br label %22

22:                                               ; preds = %11, %6
  br label %23

23:                                               ; preds = %22
  br label %24

24:                                               ; preds = %23, %1
  ret void
}

; Function Attrs: null_pointer_is_valid sspstrong uwtable
define internal void @dissect_base_format_time_stamp_section(ptr noundef %0, ptr noundef %1, ptr noundef %2, i32 noundef %3, i1 noundef zeroext %4, i8 noundef zeroext %5, ptr noundef %6) #0 {
  %8 = alloca ptr, align 8
  %9 = alloca ptr, align 8
  %10 = alloca ptr, align 8
  %11 = alloca i32, align 4
  %12 = alloca i8, align 1
  %13 = alloca i8, align 1
  %14 = alloca ptr, align 8
  %15 = alloca ptr, align 8
  %16 = alloca i16, align 2
  %17 = alloca i8, align 1
  store ptr %0, ptr %8, align 8
  store ptr %1, ptr %9, align 8
  store ptr %2, ptr %10, align 8
  store i32 %3, ptr %11, align 4
  %18 = zext i1 %4 to i8
  store i8 %18, ptr %12, align 1
  store i8 %5, ptr %13, align 1
  store ptr %6, ptr %14, align 8
  call void @llvm.lifetime.start.p0(i64 8, ptr %15) #11
  %19 = load ptr, ptr %9, align 8
  %20 = load i32, ptr @hf_cip_safety_message_encoding, align 4
  %21 = load ptr, ptr %10, align 8
  %22 = call ptr @proto_tree_add_uint(ptr noundef %19, i32 noundef %20, ptr noundef %21, i32 noundef 0, i32 noundef 0, i32 noundef 4)
  store ptr %22, ptr %15, align 8
  %23 = load ptr, ptr %15, align 8
  call void @proto_item_set_generated(ptr noundef %23)
  %24 = load ptr, ptr %9, align 8
  %25 = load i32, ptr @hf_cipsafety_timestamp, align 4
  %26 = load ptr, ptr %10, align 8
  %27 = load i32, ptr %11, align 4
  %28 = call ptr @proto_tree_add_item(ptr noundef %24, i32 noundef %25, ptr noundef %26, i32 noundef %27, i32 noundef 2, i32 noundef -2147483648)
  call void @llvm.lifetime.start.p0(i64 2, ptr %16) #11
  %29 = load ptr, ptr %10, align 8
  %30 = load i32, ptr %11, align 4
  %31 = call zeroext i16 @tvb_get_letohs(ptr noundef %29, i32 noundef %30)
  store i16 %31, ptr %16, align 2
  %32 = load i8, ptr %12, align 1, !range !13, !noundef !14
  %33 = trunc i8 %32 to i1
  br i1 %33, label %34, label %53

34:                                               ; preds = %7
  call void @llvm.lifetime.start.p0(i64 1, ptr %17) #11
  %35 = load ptr, ptr %14, align 8
  %36 = call zeroext i8 @compute_crc_s1_pid(ptr noundef %35)
  %37 = load i8, ptr %13, align 1
  %38 = zext i8 %37 to i32
  %39 = and i32 %38, 31
  %40 = trunc i32 %39 to i8
  %41 = load i16, ptr %16, align 2
  %42 = call zeroext i8 @compute_crc_s1_timestamp(i8 noundef zeroext %36, i8 noundef zeroext %40, i16 noundef zeroext %41)
  store i8 %42, ptr %17, align 1
  %43 = load ptr, ptr %9, align 8
  %44 = load ptr, ptr %10, align 8
  %45 = load i32, ptr %11, align 4
  %46 = add i32 %45, 2
  %47 = load i32, ptr @hf_cipsafety_crc_s1, align 4
  %48 = load i32, ptr @hf_cipsafety_crc_s1_status, align 4
  %49 = load ptr, ptr %8, align 8
  %50 = load i8, ptr %17, align 1
  %51 = zext i8 %50 to i32
  %52 = call ptr @proto_tree_add_checksum(ptr noundef %43, ptr noundef %44, i32 noundef %46, i32 noundef %47, i32 noundef %48, ptr noundef @ei_cipsafety_crc_s1, ptr noundef %49, i32 noundef %51, i32 noundef -2147483648, i32 noundef 1)
  call void @llvm.lifetime.end.p0(i64 1, ptr %17) #11
  br label %62

53:                                               ; preds = %7
  %54 = load ptr, ptr %9, align 8
  %55 = load ptr, ptr %10, align 8
  %56 = load i32, ptr %11, align 4
  %57 = add i32 %56, 2
  %58 = load i32, ptr @hf_cipsafety_crc_s1, align 4
  %59 = load i32, ptr @hf_cipsafety_crc_s1_status, align 4
  %60 = load ptr, ptr %8, align 8
  %61 = call ptr @proto_tree_add_checksum(ptr noundef %54, ptr noundef %55, i32 noundef %57, i32 noundef %58, i32 noundef %59, ptr noundef @ei_cipsafety_crc_s1, ptr noundef %60, i32 noundef 0, i32 noundef -2147483648, i32 noundef 0)
  br label %62

62:                                               ; preds = %53, %34
  call void @llvm.lifetime.end.p0(i64 2, ptr %16) #11
  call void @llvm.lifetime.end.p0(i64 8, ptr %15) #11
  ret void
}