; Function Attrs: null_pointer_is_valid sspstrong uwtable
define internal fastcc void @dissect_base_format_time_stamp_section(ptr noundef %0, ptr noundef %1, ptr noundef %2, i32 noundef range(i32 -3, 2147483645) %3, i1 noundef zeroext %4, i8 noundef zeroext %5, ptr noundef readonly captures(none) %6) unnamed_addr #2 {
  %8 = alloca i8, align 1
  %9 = alloca i16, align 2
  %10 = alloca [8 x i8], align 2
  %11 = load i32, ptr @hf_cip_safety_message_encoding, align 4
  %12 = tail call ptr @proto_tree_add_uint(ptr noundef %1, i32 noundef %11, ptr noundef %2, i32 noundef 0, i32 noundef 0, i32 noundef 4)
  %.not.i = icmp eq ptr %12, null
  br i1 %.not.i, label %proto_item_set_generated.exit, label %13

13:                                               ; preds = %7
  %14 = getelementptr inbounds nuw i8, ptr %12, i64 40
  %15 = load ptr, ptr %14, align 8
  %.not5.i = icmp eq ptr %15, null
  br i1 %.not5.i, label %proto_item_set_generated.exit, label %16

16:                                               ; preds = %13
  %17 = getelementptr inbounds nuw i8, ptr %15, i64 28
  %18 = load i32, ptr %17, align 4
  %19 = or i32 %18, 2
  store i32 %19, ptr %17, align 4
  br label %proto_item_set_generated.exit

proto_item_set_generated.exit:                    ; preds = %7, %13, %16
  %20 = load i32, ptr @hf_cipsafety_timestamp, align 4
  %21 = tail call ptr @proto_tree_add_item(ptr noundef %1, i32 noundef %20, ptr noundef %2, i32 noundef %3, i32 noundef 2, i32 noundef -2147483648)
  %22 = tail call zeroext i16 @tvb_get_letohs(ptr noundef %2, i32 noundef %3)
  br i1 %4, label %23, label %40

23:                                               ; preds = %proto_item_set_generated.exit
  call void @llvm.lifetime.start.p0(i64 8, ptr nonnull %10) #7
  %24 = getelementptr inbounds nuw i8, ptr %6, i64 2
  %25 = load i16, ptr %24, align 1
  store i16 %25, ptr %10, align 2
  %26 = getelementptr inbounds nuw i8, ptr %10, i64 2
  %27 = getelementptr inbounds nuw i8, ptr %6, i64 4
  %28 = load i32, ptr %27, align 1
  store i32 %28, ptr %26, align 2
  %29 = getelementptr inbounds nuw i8, ptr %10, i64 6
  %30 = load i16, ptr %6, align 1
  store i16 %30, ptr %29, align 2
  %31 = call zeroext i8 @crc8_0x37(ptr noundef nonnull %10, i32 noundef 8, i8 noundef zeroext 0)
  call void @llvm.lifetime.end.p0(i64 8, ptr nonnull %10) #7
  %32 = and i8 %5, 31
  call void @llvm.lifetime.start.p0(i64 1, ptr nonnull %8)
  call void @llvm.lifetime.start.p0(i64 2, ptr nonnull %9)
  store i8 %32, ptr %8, align 1
  store i16 %22, ptr %9, align 2
  %33 = call zeroext i8 @crc8_0x37(ptr noundef nonnull %8, i32 noundef 1, i8 noundef zeroext %31)
  %34 = call zeroext i8 @crc8_0x37(ptr noundef nonnull %9, i32 noundef 2, i8 noundef zeroext %33)
  call void @llvm.lifetime.end.p0(i64 1, ptr nonnull %8)
  call void @llvm.lifetime.end.p0(i64 2, ptr nonnull %9)
  %35 = add nsw i32 %3, 2
  %36 = load i32, ptr @hf_cipsafety_crc_s1, align 4
  %37 = load i32, ptr @hf_cipsafety_crc_s1_status, align 4
  %38 = zext i8 %34 to i32
  %39 = call ptr @proto_tree_add_checksum(ptr noundef %1, ptr noundef %2, i32 noundef %35, i32 noundef %36, i32 noundef %37, ptr noundef nonnull @ei_cipsafety_crc_s1, ptr noundef %0, i32 noundef %38, i32 noundef -2147483648, i32 noundef 1)
  br label %45

40:                                               ; preds = %proto_item_set_generated.exit
  %41 = add nsw i32 %3, 2
  %42 = load i32, ptr @hf_cipsafety_crc_s1, align 4
  %43 = load i32, ptr @hf_cipsafety_crc_s1_status, align 4
  %44 = tail call ptr @proto_tree_add_checksum(ptr noundef %1, ptr noundef %2, i32 noundef %41, i32 noundef %42, i32 noundef %43, ptr noundef nonnull @ei_cipsafety_crc_s1, ptr noundef %0, i32 noundef 0, i32 noundef -2147483648, i32 noundef 0)
  br label %45

45:                                               ; preds = %40, %23
  ret void
}